libwk2gtkpdf-6.so.0 libwk2gtkpdf-6-0 #MINVER#
* Build-Depends-Package: libwk2gtkpdf-dev
 LIBWK2GTKPDF_1.0@LIBWK2GTKPDF_1.0 0.1.1
 LOG_IGNORE@LIBWK2GTKPDF_1.0 0.1.1
 LOG_LEVEL@LIBWK2GTKPDF_1.0 0.1.1
 PDF_FreeAnchors@LIBWK2GTKPDF_1.0 0.1.1
 PDF_FreeBlob@LIBWK2GTKPDF_1.0 0.1.1
 PDF_FreeHTML@LIBWK2GTKPDF_1.0 0.1.1
 _ZN5icGTK4initE12WKGTKRunMode@LIBWK2GTKPDF_1.0 0.1.1
 _ZN5icGTK4initEv@LIBWK2GTKPDF_1.0 0.1.1
 _ZN5icGTKC1E12WKGTKRunMode@LIBWK2GTKPDF_1.0 0.1.1
 _ZN5icGTKC2E12WKGTKRunMode@LIBWK2GTKPDF_1.0 0.1.1
 _ZN5icGTKD1Ev@LIBWK2GTKPDF_1.0 0.1.1
 _ZN5icGTKD2Ev@LIBWK2GTKPDF_1.0 0.1.1
 _ZN5iclog14get_level_nameB5cxx11ENS_8loglevelE@LIBWK2GTKPDF_1.0 0.1.1
 _ZN5iclog17get_category_nameB5cxx11ENS_8categoryE@LIBWK2GTKPDF_1.0 0.1.1
 _ZN5iclog18streambuf_internal4syncEv@LIBWK2GTKPDF_1.0 0.1.1
 _ZN5iclog18streambuf_internal8overflowEi@LIBWK2GTKPDF_1.0 0.1.1
 _ZN5iclog18streambuf_internalD0Ev@LIBWK2GTKPDF_1.0 0.1.1
 _ZN5iclog18streambuf_internalD1Ev@LIBWK2GTKPDF_1.0 0.1.1
 _ZN5iclog18streambuf_internalD2Ev@LIBWK2GTKPDF_1.0 0.1.1
 _ZN5iclog4endlERNS_9logstreamE@LIBWK2GTKPDF_1.0 0.1.1
 _ZN5iclog9logstream5flushEv@LIBWK2GTKPDF_1.0 0.1.1
 _ZN5iclog9logstream5levelENS_8loglevelE@LIBWK2GTKPDF_1.0 0.1.1
 _ZN5iclog9logstream8categoryEy@LIBWK2GTKPDF_1.0 0.1.1
 _ZN5iclog9logstreamC1Ev@LIBWK2GTKPDF_1.0 0.1.1
 _ZN5iclog9logstreamC2Ev@LIBWK2GTKPDF_1.0 0.1.1
 _ZN5iclog9logstreamD1Ev@LIBWK2GTKPDF_1.0 0.1.1
 _ZN5iclog9logstreamD2Ev@LIBWK2GTKPDF_1.0 0.1.1
 _ZN5iclog9logstreamlsEPKc@LIBWK2GTKPDF_1.0 0.1.1
 _ZN5iclog9logstreamlsEd@LIBWK2GTKPDF_1.0 0.1.1
 _ZN5iclog9logstreamlsEi@LIBWK2GTKPDF_1.0 0.1.1
 _ZN5iclog9logstreamlsINSt7__cxx1112basic_stringIcSt11char_traitsIcESaIcEEEEERS0_RKT_@LIBWK2GTKPDF_1.0 0.1.1
 _ZN5iclog9logstreamlsIPcEERS0_RKT_@LIBWK2GTKPDF_1.0 0.1.1
 _ZN5iclog9logstreamlsISoEERS0_PFRT_S4_E@LIBWK2GTKPDF_1.0 0.1.1
 _ZN5iclog9logstreamlsIjEERS0_RKT_@LIBWK2GTKPDF_1.0 0.1.1
 _ZN5iclog9logstreamlsIlEERS0_RKT_@LIBWK2GTKPDF_1.0 0.1.1
 _ZN5iclog9logstreamlsImEERS0_RKT_@LIBWK2GTKPDF_1.0 0.1.1
 _ZN5iclog9logstreamlsItEERS0_RKT_@LIBWK2GTKPDF_1.0 0.1.1
 _ZN5icloglsERNS_9logstreamENS_8categoryE@LIBWK2GTKPDF_1.0 0.1.1
 _ZN5icloglsERNS_9logstreamENS_8loglevelE@LIBWK2GTKPDF_1.0 0.1.1
 _ZN5phtml10PDFprinter11get_anchorsEv@LIBWK2GTKPDF_1.0 0.1.1
 _ZN5phtml10PDFprinter19set_param_from_fileEPKc10index_mode@LIBWK2GTKPDF_1.0 0.1.1
 _ZN5phtml10PDFprinter19set_param_from_fileEPKcS2_10index_mode@LIBWK2GTKPDF_1.0 0.1.1
 _ZN5phtml10PDFprinter19set_param_from_fileEPKcS2_S2_10index_mode@LIBWK2GTKPDF_1.0 0.1.1
 _ZN5phtml10PDFprinter6layoutEPKcS2_@LIBWK2GTKPDF_1.0 0.1.1
 _ZN5phtml10PDFprinter6layoutEjj@LIBWK2GTKPDF_1.0 0.1.1
 _ZN5phtml10PDFprinter8get_blobEv@LIBWK2GTKPDF_1.0 0.1.1
 _ZN5phtml10PDFprinter8make_pdfEv@LIBWK2GTKPDF_1.0 0.1.1
 _ZN5phtml10PDFprinter9set_paramEPKc10index_mode@LIBWK2GTKPDF_1.0 0.1.1
 _ZN5phtml10PDFprinter9set_paramEPKcS2_10index_mode@LIBWK2GTKPDF_1.0 0.1.1
 _ZN5phtml10PDFprinter9set_paramEPKcS2_S2_10index_mode@LIBWK2GTKPDF_1.0 0.1.1
 _ZN5phtml10PDFprinterC1EPKc@LIBWK2GTKPDF_1.0 0.1.1
 _ZN5phtml10PDFprinterC1Ev@LIBWK2GTKPDF_1.0 0.1.1
 _ZN5phtml10PDFprinterC2EPKc@LIBWK2GTKPDF_1.0 0.1.1
 _ZN5phtml10PDFprinterC2Ev@LIBWK2GTKPDF_1.0 0.1.1
 _ZN5phtml10PDFprinterD1Ev@LIBWK2GTKPDF_1.0 0.1.1
 _ZN5phtml10PDFprinterD2Ev@LIBWK2GTKPDF_1.0 0.1.1
 _ZN5phtml12encode_image9b64_imageEv@LIBWK2GTKPDF_1.0 0.1.1
 _ZN5phtml12encode_imageC1EPKc@LIBWK2GTKPDF_1.0 0.1.1
 _ZN5phtml12encode_imageC2EPKc@LIBWK2GTKPDF_1.0 0.1.1
 _ZN5phtml12encode_imageD1Ev@LIBWK2GTKPDF_1.0 0.1.1
 _ZN5phtml12encode_imageD2Ev@LIBWK2GTKPDF_1.0 0.1.1
 _ZN5phtml13process_nodesEPNS_9html_treeE@LIBWK2GTKPDF_1.0 0.1.1
 _ZN5phtml9html_tree10new_node_fEPKcz@LIBWK2GTKPDF_1.0 0.1.1
 _ZN5phtml9html_tree16set_node_contentEPKcbb@LIBWK2GTKPDF_1.0 0.1.1
 _ZN5phtml9html_tree18set_node_content_fEPKcz@LIBWK2GTKPDF_1.0 0.1.1
 _ZN5phtml9html_tree8new_nodeEPKc@LIBWK2GTKPDF_1.0 0.1.1
 _ZN5phtml9html_treeC1EPKcPS0_@LIBWK2GTKPDF_1.0 0.1.1
 _ZN5phtml9html_treeC1EPKcb@LIBWK2GTKPDF_1.0 0.1.1
 _ZN5phtml9html_treeC2EPKcPS0_@LIBWK2GTKPDF_1.0 0.1.1
 _ZN5phtml9html_treeC2EPKcb@LIBWK2GTKPDF_1.0 0.1.1
 _ZN5phtml9html_treeD1Ev@LIBWK2GTKPDF_1.0 0.1.1
 _ZN5phtml9html_treeD2Ev@LIBWK2GTKPDF_1.0 0.1.1
 _ZNK5phtml9html_tree8get_htmlEv@LIBWK2GTKPDF_1.0 0.1.1
 wk2gtkpdf_version@LIBWK2GTKPDF_1.0 0.1.1
 wkJlog@LIBWK2GTKPDF_1.0 0.1.1
